; Function Attrs: mustprogress uwtable
define hidden void @_ZN10duckdb_re23RE2C2ERKNS_11StringPieceE(ptr noundef nonnull align 8 dereferenceable(148) initializes((8, 31)) %0, ptr noundef nonnull readonly align 8 captures(none) dereferenceable(16) %1) unnamed_addr #2 align 2 personality ptr @__gxx_personality_v0 {
  %3 = alloca %"class.duckdb_re2::RE2::Options", align 8
  %4 = getelementptr inbounds nuw i8, ptr %0, i64 8
  store i64 8388608, ptr %4, align 8, !tbaa !7
  %5 = getelementptr inbounds nuw i8, ptr %0, i64 16
  store i32 1, ptr %5, align 8, !tbaa !12
  %6 = getelementptr inbounds nuw i8, ptr %0, i64 20
  store i8 0, ptr %6, align 4, !tbaa !13
  %7 = getelementptr inbounds nuw i8, ptr %0, i64 21
  store i8 0, ptr %7, align 1, !tbaa !14
  %8 = getelementptr inbounds nuw i8, ptr %0, i64 22
  store i8 1, ptr %8, align 2, !tbaa !15
  %9 = getelementptr inbounds nuw i8, ptr %0, i64 23
  %10 = getelementptr inbounds nuw i8, ptr %0, i64 27
  store i32 0, ptr %9, align 1
  store i8 1, ptr %10, align 1, !tbaa !16
  %11 = getelementptr inbounds nuw i8, ptr %0, i64 28
  store i8 0, ptr %11, align 4, !tbaa !17
  %12 = getelementptr inbounds nuw i8, ptr %0, i64 29
  store i8 0, ptr %12, align 1, !tbaa !18
  %13 = getelementptr inbounds nuw i8, ptr %0, i64 30
  store i8 0, ptr %13, align 2, !tbaa !19
  %14 = getelementptr inbounds nuw i8, ptr %0, i64 72
  %15 = getelementptr inbounds nuw i8, ptr %0, i64 88
  store ptr %15, ptr %14, align 8, !tbaa !20
  %16 = getelementptr inbounds nuw i8, ptr %0, i64 80
  store i64 0, ptr %16, align 8, !tbaa !24
  store i8 0, ptr %15, align 8, !tbaa !26
  %17 = getelementptr inbounds nuw i8, ptr %0, i64 136
  store i32 0, ptr %17, align 8, !tbaa !27
  %18 = getelementptr inbounds nuw i8, ptr %0, i64 140
  store i32 0, ptr %18, align 4, !tbaa !27
  %19 = getelementptr inbounds nuw i8, ptr %0, i64 144
  store i32 0, ptr %19, align 8, !tbaa !27
  call void @llvm.lifetime.start.p0(i64 24, ptr nonnull %3) #31
  store i64 8388608, ptr %3, align 8, !tbaa !7
  %20 = getelementptr inbounds nuw i8, ptr %3, i64 8
  store i32 1, ptr %20, align 8, !tbaa !12
  %21 = getelementptr inbounds nuw i8, ptr %3, i64 12
  store i8 0, ptr %21, align 4, !tbaa !13
  %22 = getelementptr inbounds nuw i8, ptr %3, i64 13
  store i8 0, ptr %22, align 1, !tbaa !14
  %23 = getelementptr inbounds nuw i8, ptr %3, i64 14
  store i8 1, ptr %23, align 2, !tbaa !15
  %24 = getelementptr inbounds nuw i8, ptr %3, i64 15
  %25 = getelementptr inbounds nuw i8, ptr %3, i64 19
  store i32 0, ptr %24, align 1
  store i8 1, ptr %25, align 1, !tbaa !16
  %26 = getelementptr inbounds nuw i8, ptr %3, i64 20
  store i8 0, ptr %26, align 4, !tbaa !17
  %27 = getelementptr inbounds nuw i8, ptr %3, i64 21
  store i8 0, ptr %27, align 1, !tbaa !18
  %28 = getelementptr inbounds nuw i8, ptr %3, i64 22
  store i8 0, ptr %28, align 2, !tbaa !19
  invoke void @_ZN10duckdb_re23RE24InitERKNS_11StringPieceERKNS0_7OptionsE(ptr noundef nonnull align 8 dereferenceable(148) %0, ptr noundef nonnull align 8 dereferenceable(16) %1, ptr noundef nonnull align 8 dereferenceable(23) %3)
          to label %29 unwind label %30

29:                                               ; preds = %2
  call void @llvm.lifetime.end.p0(i64 24, ptr nonnull %3) #31
  ret void

30:                                               ; preds = %2
  %31 = landingpad { ptr, i32 }
          cleanup
  call void @llvm.lifetime.end.p0(i64 24, ptr nonnull %3) #31
  %32 = load ptr, ptr %14, align 8, !tbaa !32
  %33 = icmp eq ptr %32, %15
  br i1 %33, label %_ZNKSt7__cxx1112basic_stringIcSt11char_traitsIcESaIcEE11_M_is_localEv.exit.thread.i.i, label %_ZNKSt7__cxx1112basic_stringIcSt11char_traitsIcESaIcEE11_M_is_localEv.exit.i.i

_ZNKSt7__cxx1112basic_stringIcSt11char_traitsIcESaIcEE11_M_is_localEv.exit.thread.i.i: ; preds = %30
  %34 = load i64, ptr %16, align 8, !tbaa !24
  %35 = icmp ult i64 %34, 16
  tail call void @llvm.assume(i1 %35)
  br label %_ZNSt7__cxx1112basic_stringIcSt11char_traitsIcESaIcEED2Ev.exit

_ZNKSt7__cxx1112basic_stringIcSt11char_traitsIcESaIcEE11_M_is_localEv.exit.i.i: ; preds = %30
  tail call void @_ZdlPv(ptr noundef %32) #33
  br label %_ZNSt7__cxx1112basic_stringIcSt11char_traitsIcESaIcEED2Ev.exit

_ZNSt7__cxx1112basic_stringIcSt11char_traitsIcESaIcEED2Ev.exit: ; preds = %_ZNKSt7__cxx1112basic_stringIcSt11char_traitsIcESaIcEE11_M_is_localEv.exit.thread.i.i, %_ZNKSt7__cxx1112basic_stringIcSt11char_traitsIcESaIcEE11_M_is_localEv.exit.i.i
  resume { ptr, i32 } %31
}